
/home/wuchenze/riscv-proj/sim/build/fact.elf:     file format elf64-littleriscv


Disassembly of section .text:

0000000080000000 <_start>:
    80000000:	00001417          	auipc	s0,0x1
    80000004:	00040413          	mv	s0,s0
    80000008:	00009117          	auipc	sp,0x9
    8000000c:	ff810113          	addi	sp,sp,-8 # 80009000 <_end>
    80000010:	1a0000ef          	jal	ra,800001b0 <_trm_init>

0000000080000014 <check>:
    80000014:	fe010113          	addi	sp,sp,-32
    80000018:	00113c23          	sd	ra,24(sp)
    8000001c:	00813823          	sd	s0,16(sp)
    80000020:	02010413          	addi	s0,sp,32
    80000024:	00050793          	mv	a5,a0
    80000028:	fef407a3          	sb	a5,-17(s0) # 80000fef <f+0xdcf>
    8000002c:	fef44783          	lbu	a5,-17(s0)
    80000030:	0017c793          	xori	a5,a5,1
    80000034:	0ff7f793          	zext.b	a5,a5
    80000038:	00078663          	beqz	a5,80000044 <check+0x30>
    8000003c:	00100513          	li	a0,1
    80000040:	14c000ef          	jal	ra,8000018c <halt>
    80000044:	00000013          	nop
    80000048:	01813083          	ld	ra,24(sp)
    8000004c:	01013403          	ld	s0,16(sp)
    80000050:	02010113          	addi	sp,sp,32
    80000054:	00008067          	ret

0000000080000058 <fact>:
    80000058:	fe010113          	addi	sp,sp,-32
    8000005c:	00113c23          	sd	ra,24(sp)
    80000060:	00813823          	sd	s0,16(sp)
    80000064:	02010413          	addi	s0,sp,32
    80000068:	00050793          	mv	a5,a0
    8000006c:	fef42623          	sw	a5,-20(s0)
    80000070:	fec42783          	lw	a5,-20(s0)
    80000074:	0007879b          	sext.w	a5,a5
    80000078:	00078a63          	beqz	a5,8000008c <fact+0x34>
    8000007c:	fec42783          	lw	a5,-20(s0)
    80000080:	0007871b          	sext.w	a4,a5
    80000084:	00100793          	li	a5,1
    80000088:	00f71663          	bne	a4,a5,80000094 <fact+0x3c>
    8000008c:	00100793          	li	a5,1
    80000090:	0280006f          	j	800000b8 <fact+0x60>
    80000094:	fec42783          	lw	a5,-20(s0)
    80000098:	fff7879b          	addiw	a5,a5,-1
    8000009c:	0007879b          	sext.w	a5,a5
    800000a0:	00078513          	mv	a0,a5
    800000a4:	fb5ff0ef          	jal	ra,80000058 <fact>
    800000a8:	00050793          	mv	a5,a0
    800000ac:	fec42703          	lw	a4,-20(s0)
    800000b0:	02f707bb          	mulw	a5,a4,a5
    800000b4:	0007879b          	sext.w	a5,a5
    800000b8:	00078513          	mv	a0,a5
    800000bc:	01813083          	ld	ra,24(sp)
    800000c0:	01013403          	ld	s0,16(sp)
    800000c4:	02010113          	addi	sp,sp,32
    800000c8:	00008067          	ret

00000000800000cc <main>:
    800000cc:	fe010113          	addi	sp,sp,-32
    800000d0:	00113c23          	sd	ra,24(sp)
    800000d4:	00813823          	sd	s0,16(sp)
    800000d8:	02010413          	addi	s0,sp,32
    800000dc:	fe042623          	sw	zero,-20(s0)
    800000e0:	0840006f          	j	80000164 <main+0x98>
    800000e4:	fec42783          	lw	a5,-20(s0)
    800000e8:	00078513          	mv	a0,a5
    800000ec:	f6dff0ef          	jal	ra,80000058 <fact>
    800000f0:	00050793          	mv	a5,a0
    800000f4:	00078693          	mv	a3,a5
    800000f8:	00000717          	auipc	a4,0x0
    800000fc:	12870713          	addi	a4,a4,296 # 80000220 <f>
    80000100:	fec42783          	lw	a5,-20(s0)
    80000104:	00279793          	slli	a5,a5,0x2
    80000108:	00f707b3          	add	a5,a4,a5
    8000010c:	00d7a023          	sw	a3,0(a5)
    80000110:	00000717          	auipc	a4,0x0
    80000114:	11070713          	addi	a4,a4,272 # 80000220 <f>
    80000118:	fec42783          	lw	a5,-20(s0)
    8000011c:	00279793          	slli	a5,a5,0x2
    80000120:	00f707b3          	add	a5,a4,a5
    80000124:	0007a683          	lw	a3,0(a5)
    80000128:	00000717          	auipc	a4,0x0
    8000012c:	0c070713          	addi	a4,a4,192 # 800001e8 <ans>
    80000130:	fec42783          	lw	a5,-20(s0)
    80000134:	00279793          	slli	a5,a5,0x2
    80000138:	00f707b3          	add	a5,a4,a5
    8000013c:	0007a783          	lw	a5,0(a5)
    80000140:	00068713          	mv	a4,a3
    80000144:	40f707b3          	sub	a5,a4,a5
    80000148:	0017b793          	seqz	a5,a5
    8000014c:	0ff7f793          	zext.b	a5,a5
    80000150:	00078513          	mv	a0,a5
    80000154:	ec1ff0ef          	jal	ra,80000014 <check>
    80000158:	fec42783          	lw	a5,-20(s0)
    8000015c:	0017879b          	addiw	a5,a5,1
    80000160:	fef42623          	sw	a5,-20(s0)
    80000164:	fec42783          	lw	a5,-20(s0)
    80000168:	0007871b          	sext.w	a4,a5
    8000016c:	00c00793          	li	a5,12
    80000170:	f6e7dae3          	bge	a5,a4,800000e4 <main+0x18>
    80000174:	00000793          	li	a5,0
    80000178:	00078513          	mv	a0,a5
    8000017c:	01813083          	ld	ra,24(sp)
    80000180:	01013403          	ld	s0,16(sp)
    80000184:	02010113          	addi	sp,sp,32
    80000188:	00008067          	ret

000000008000018c <halt>:
    8000018c:	fe010113          	addi	sp,sp,-32
    80000190:	00813c23          	sd	s0,24(sp)
    80000194:	02010413          	addi	s0,sp,32
    80000198:	00050793          	mv	a5,a0
    8000019c:	fef42623          	sw	a5,-20(s0)
    800001a0:	fec42783          	lw	a5,-20(s0)
    800001a4:	00078513          	mv	a0,a5
    800001a8:	00100073          	ebreak
    800001ac:	0000006f          	j	800001ac <halt+0x20>

00000000800001b0 <_trm_init>:
    800001b0:	fe010113          	addi	sp,sp,-32
    800001b4:	00113c23          	sd	ra,24(sp)
    800001b8:	00813823          	sd	s0,16(sp)
    800001bc:	02010413          	addi	s0,sp,32
    800001c0:	00000517          	auipc	a0,0x0
    800001c4:	02050513          	addi	a0,a0,32 # 800001e0 <_etext>
    800001c8:	f05ff0ef          	jal	ra,800000cc <main>
    800001cc:	00050793          	mv	a5,a0
    800001d0:	fef42623          	sw	a5,-20(s0)
    800001d4:	fec42783          	lw	a5,-20(s0)
    800001d8:	00078513          	mv	a0,a5
    800001dc:	fb1ff0ef          	jal	ra,8000018c <halt>
