
/home/wuchenze/riscv-proj/sim/build/fib.elf:     file format elf64-littleriscv


Disassembly of section .text:

0000000080000000 <_start>:
    80000000:	00001417          	auipc	s0,0x1
    80000004:	00040413          	mv	s0,s0
    80000008:	00009117          	auipc	sp,0x9
    8000000c:	ff810113          	addi	sp,sp,-8 # 80009000 <_end>
    80000010:	184000ef          	jal	ra,80000194 <_trm_init>

0000000080000014 <check>:
    80000014:	fe010113          	addi	sp,sp,-32
    80000018:	00113c23          	sd	ra,24(sp)
    8000001c:	00813823          	sd	s0,16(sp)
    80000020:	02010413          	addi	s0,sp,32
    80000024:	00050793          	mv	a5,a0
    80000028:	fef407a3          	sb	a5,-17(s0) # 80000fef <_bss_start+0xcdf>
    8000002c:	fef44783          	lbu	a5,-17(s0)
    80000030:	0017c793          	xori	a5,a5,1
    80000034:	0ff7f793          	zext.b	a5,a5
    80000038:	00078663          	beqz	a5,80000044 <check+0x30>
    8000003c:	00100513          	li	a0,1
    80000040:	130000ef          	jal	ra,80000170 <halt>
    80000044:	00000013          	nop
    80000048:	01813083          	ld	ra,24(sp)
    8000004c:	01013403          	ld	s0,16(sp)
    80000050:	02010113          	addi	sp,sp,32
    80000054:	00008067          	ret

0000000080000058 <main>:
    80000058:	fe010113          	addi	sp,sp,-32
    8000005c:	00113c23          	sd	ra,24(sp)
    80000060:	00813823          	sd	s0,16(sp)
    80000064:	02010413          	addi	s0,sp,32
    80000068:	00200793          	li	a5,2
    8000006c:	fef42623          	sw	a5,-20(s0)
    80000070:	0b80006f          	j	80000128 <main+0xd0>
    80000074:	fec42783          	lw	a5,-20(s0)
    80000078:	fff7879b          	addiw	a5,a5,-1
    8000007c:	0007879b          	sext.w	a5,a5
    80000080:	00000717          	auipc	a4,0x0
    80000084:	15070713          	addi	a4,a4,336 # 800001d0 <fib>
    80000088:	00279793          	slli	a5,a5,0x2
    8000008c:	00f707b3          	add	a5,a4,a5
    80000090:	0007a703          	lw	a4,0(a5)
    80000094:	fec42783          	lw	a5,-20(s0)
    80000098:	ffe7879b          	addiw	a5,a5,-2
    8000009c:	0007879b          	sext.w	a5,a5
    800000a0:	00000697          	auipc	a3,0x0
    800000a4:	13068693          	addi	a3,a3,304 # 800001d0 <fib>
    800000a8:	00279793          	slli	a5,a5,0x2
    800000ac:	00f687b3          	add	a5,a3,a5
    800000b0:	0007a783          	lw	a5,0(a5)
    800000b4:	00f707bb          	addw	a5,a4,a5
    800000b8:	0007871b          	sext.w	a4,a5
    800000bc:	00000697          	auipc	a3,0x0
    800000c0:	11468693          	addi	a3,a3,276 # 800001d0 <fib>
    800000c4:	fec42783          	lw	a5,-20(s0)
    800000c8:	00279793          	slli	a5,a5,0x2
    800000cc:	00f687b3          	add	a5,a3,a5
    800000d0:	00e7a023          	sw	a4,0(a5)
    800000d4:	00000717          	auipc	a4,0x0
    800000d8:	0fc70713          	addi	a4,a4,252 # 800001d0 <fib>
    800000dc:	fec42783          	lw	a5,-20(s0)
    800000e0:	00279793          	slli	a5,a5,0x2
    800000e4:	00f707b3          	add	a5,a4,a5
    800000e8:	0007a683          	lw	a3,0(a5)
    800000ec:	00000717          	auipc	a4,0x0
    800000f0:	18470713          	addi	a4,a4,388 # 80000270 <ans>
    800000f4:	fec42783          	lw	a5,-20(s0)
    800000f8:	00279793          	slli	a5,a5,0x2
    800000fc:	00f707b3          	add	a5,a4,a5
    80000100:	0007a783          	lw	a5,0(a5)
    80000104:	00068713          	mv	a4,a3
    80000108:	40f707b3          	sub	a5,a4,a5
    8000010c:	0017b793          	seqz	a5,a5
    80000110:	0ff7f793          	zext.b	a5,a5
    80000114:	00078513          	mv	a0,a5
    80000118:	efdff0ef          	jal	ra,80000014 <check>
    8000011c:	fec42783          	lw	a5,-20(s0)
    80000120:	0017879b          	addiw	a5,a5,1
    80000124:	fef42623          	sw	a5,-20(s0)
    80000128:	fec42783          	lw	a5,-20(s0)
    8000012c:	0007871b          	sext.w	a4,a5
    80000130:	02700793          	li	a5,39
    80000134:	f4e7d0e3          	bge	a5,a4,80000074 <main+0x1c>
    80000138:	fec42783          	lw	a5,-20(s0)
    8000013c:	0007871b          	sext.w	a4,a5
    80000140:	02800793          	li	a5,40
    80000144:	40f707b3          	sub	a5,a4,a5
    80000148:	0017b793          	seqz	a5,a5
    8000014c:	0ff7f793          	zext.b	a5,a5
    80000150:	00078513          	mv	a0,a5
    80000154:	ec1ff0ef          	jal	ra,80000014 <check>
    80000158:	00000793          	li	a5,0
    8000015c:	00078513          	mv	a0,a5
    80000160:	01813083          	ld	ra,24(sp)
    80000164:	01013403          	ld	s0,16(sp)
    80000168:	02010113          	addi	sp,sp,32
    8000016c:	00008067          	ret

0000000080000170 <halt>:
    80000170:	fe010113          	addi	sp,sp,-32
    80000174:	00813c23          	sd	s0,24(sp)
    80000178:	02010413          	addi	s0,sp,32
    8000017c:	00050793          	mv	a5,a0
    80000180:	fef42623          	sw	a5,-20(s0)
    80000184:	fec42783          	lw	a5,-20(s0)
    80000188:	00078513          	mv	a0,a5
    8000018c:	00100073          	ebreak
    80000190:	0000006f          	j	80000190 <halt+0x20>

0000000080000194 <_trm_init>:
    80000194:	fe010113          	addi	sp,sp,-32
    80000198:	00113c23          	sd	ra,24(sp)
    8000019c:	00813823          	sd	s0,16(sp)
    800001a0:	02010413          	addi	s0,sp,32
    800001a4:	00000517          	auipc	a0,0x0
    800001a8:	02450513          	addi	a0,a0,36 # 800001c8 <mainargs>
    800001ac:	eadff0ef          	jal	ra,80000058 <main>
    800001b0:	00050793          	mv	a5,a0
    800001b4:	fef42623          	sw	a5,-20(s0)
    800001b8:	fec42783          	lw	a5,-20(s0)
    800001bc:	00078513          	mv	a0,a5
    800001c0:	fb1ff0ef          	jal	ra,80000170 <halt>
