
/home/wuchenze/riscv-proj/sim/build/hello-str.elf:     file format elf64-littleriscv


Disassembly of section .text:

0000000080000000 <_start>:
    80000000:	00001417          	auipc	s0,0x1
    80000004:	00040413          	mv	s0,s0
    80000008:	00009117          	auipc	sp,0x9
    8000000c:	ff810113          	addi	sp,sp,-8 # 80009000 <_end>
    80000010:	168000ef          	jal	ra,80000178 <_trm_init>

0000000080000014 <check>:
    80000014:	fe010113          	addi	sp,sp,-32
    80000018:	00113c23          	sd	ra,24(sp)
    8000001c:	00813823          	sd	s0,16(sp)
    80000020:	02010413          	addi	s0,sp,32
    80000024:	00050793          	mv	a5,a0
    80000028:	fef407a3          	sb	a5,-17(s0) # 80000fef <buf+0xa57>
    8000002c:	fef44783          	lbu	a5,-17(s0)
    80000030:	0017c793          	xori	a5,a5,1
    80000034:	0ff7f793          	zext.b	a5,a5
    80000038:	00078663          	beqz	a5,80000044 <check+0x30>
    8000003c:	00100513          	li	a0,1
    80000040:	114000ef          	jal	ra,80000154 <halt>
    80000044:	00000013          	nop
    80000048:	01813083          	ld	ra,24(sp)
    8000004c:	01013403          	ld	s0,16(sp)
    80000050:	02010113          	addi	sp,sp,32
    80000054:	00008067          	ret

0000000080000058 <main>:
    80000058:	ff010113          	addi	sp,sp,-16
    8000005c:	00113423          	sd	ra,8(sp)
    80000060:	00813023          	sd	s0,0(sp)
    80000064:	01010413          	addi	s0,sp,16
    80000068:	00000617          	auipc	a2,0x0
    8000006c:	4e060613          	addi	a2,a2,1248 # 80000548 <_etext+0x4>
    80000070:	00000597          	auipc	a1,0x0
    80000074:	4e858593          	addi	a1,a1,1256 # 80000558 <_etext+0x14>
    80000078:	00000517          	auipc	a0,0x0
    8000007c:	52050513          	addi	a0,a0,1312 # 80000598 <buf>
    80000080:	128000ef          	jal	ra,800001a8 <sprintf>
    80000084:	00000597          	auipc	a1,0x0
    80000088:	4c458593          	addi	a1,a1,1220 # 80000548 <_etext+0x4>
    8000008c:	00000517          	auipc	a0,0x0
    80000090:	50c50513          	addi	a0,a0,1292 # 80000598 <buf>
    80000094:	3d8000ef          	jal	ra,8000046c <strcmp>
    80000098:	00050793          	mv	a5,a0
    8000009c:	0017b793          	seqz	a5,a5
    800000a0:	0ff7f793          	zext.b	a5,a5
    800000a4:	00078513          	mv	a0,a5
    800000a8:	f6dff0ef          	jal	ra,80000014 <check>
    800000ac:	00200713          	li	a4,2
    800000b0:	00100693          	li	a3,1
    800000b4:	00100613          	li	a2,1
    800000b8:	00000597          	auipc	a1,0x0
    800000bc:	4a858593          	addi	a1,a1,1192 # 80000560 <_etext+0x1c>
    800000c0:	00000517          	auipc	a0,0x0
    800000c4:	4d850513          	addi	a0,a0,1240 # 80000598 <buf>
    800000c8:	0e0000ef          	jal	ra,800001a8 <sprintf>
    800000cc:	00000597          	auipc	a1,0x0
    800000d0:	4a458593          	addi	a1,a1,1188 # 80000570 <_etext+0x2c>
    800000d4:	00000517          	auipc	a0,0x0
    800000d8:	4c450513          	addi	a0,a0,1220 # 80000598 <buf>
    800000dc:	390000ef          	jal	ra,8000046c <strcmp>
    800000e0:	00050793          	mv	a5,a0
    800000e4:	0017b793          	seqz	a5,a5
    800000e8:	0ff7f793          	zext.b	a5,a5
    800000ec:	00078513          	mv	a0,a5
    800000f0:	f25ff0ef          	jal	ra,80000014 <check>
    800000f4:	00c00713          	li	a4,12
    800000f8:	00a00693          	li	a3,10
    800000fc:	00200613          	li	a2,2
    80000100:	00000597          	auipc	a1,0x0
    80000104:	46058593          	addi	a1,a1,1120 # 80000560 <_etext+0x1c>
    80000108:	00000517          	auipc	a0,0x0
    8000010c:	49050513          	addi	a0,a0,1168 # 80000598 <buf>
    80000110:	098000ef          	jal	ra,800001a8 <sprintf>
    80000114:	00000597          	auipc	a1,0x0
    80000118:	46c58593          	addi	a1,a1,1132 # 80000580 <_etext+0x3c>
    8000011c:	00000517          	auipc	a0,0x0
    80000120:	47c50513          	addi	a0,a0,1148 # 80000598 <buf>
    80000124:	348000ef          	jal	ra,8000046c <strcmp>
    80000128:	00050793          	mv	a5,a0
    8000012c:	0017b793          	seqz	a5,a5
    80000130:	0ff7f793          	zext.b	a5,a5
    80000134:	00078513          	mv	a0,a5
    80000138:	eddff0ef          	jal	ra,80000014 <check>
    8000013c:	00000793          	li	a5,0
    80000140:	00078513          	mv	a0,a5
    80000144:	00813083          	ld	ra,8(sp)
    80000148:	00013403          	ld	s0,0(sp)
    8000014c:	01010113          	addi	sp,sp,16
    80000150:	00008067          	ret

0000000080000154 <halt>:
    80000154:	fe010113          	addi	sp,sp,-32
    80000158:	00813c23          	sd	s0,24(sp)
    8000015c:	02010413          	addi	s0,sp,32
    80000160:	00050793          	mv	a5,a0
    80000164:	fef42623          	sw	a5,-20(s0)
    80000168:	fec42783          	lw	a5,-20(s0)
    8000016c:	00078513          	mv	a0,a5
    80000170:	00100073          	ebreak
    80000174:	0000006f          	j	80000174 <halt+0x20>

0000000080000178 <_trm_init>:
    80000178:	fe010113          	addi	sp,sp,-32
    8000017c:	00113c23          	sd	ra,24(sp)
    80000180:	00813823          	sd	s0,16(sp)
    80000184:	02010413          	addi	s0,sp,32
    80000188:	00000517          	auipc	a0,0x0
    8000018c:	40850513          	addi	a0,a0,1032 # 80000590 <mainargs>
    80000190:	ec9ff0ef          	jal	ra,80000058 <main>
    80000194:	00050793          	mv	a5,a0
    80000198:	fef42623          	sw	a5,-20(s0)
    8000019c:	fec42783          	lw	a5,-20(s0)
    800001a0:	00078513          	mv	a0,a5
    800001a4:	fb1ff0ef          	jal	ra,80000154 <halt>

00000000800001a8 <sprintf>:
    800001a8:	f6010113          	addi	sp,sp,-160
    800001ac:	06813423          	sd	s0,104(sp)
    800001b0:	07010413          	addi	s0,sp,112
    800001b4:	faa43423          	sd	a0,-88(s0)
    800001b8:	fab43023          	sd	a1,-96(s0)
    800001bc:	00c43023          	sd	a2,0(s0)
    800001c0:	00d43423          	sd	a3,8(s0)
    800001c4:	00e43823          	sd	a4,16(s0)
    800001c8:	00f43c23          	sd	a5,24(s0)
    800001cc:	03043023          	sd	a6,32(s0)
    800001d0:	03143423          	sd	a7,40(s0)
    800001d4:	03040793          	addi	a5,s0,48
    800001d8:	f8f43c23          	sd	a5,-104(s0)
    800001dc:	f9843783          	ld	a5,-104(s0)
    800001e0:	fd078793          	addi	a5,a5,-48
    800001e4:	faf43c23          	sd	a5,-72(s0)
    800001e8:	fe043423          	sd	zero,-24(s0)
    800001ec:	fe043023          	sd	zero,-32(s0)
    800001f0:	fc043c23          	sd	zero,-40(s0)
    800001f4:	2400006f          	j	80000434 <sprintf+0x28c>
    800001f8:	fa043703          	ld	a4,-96(s0)
    800001fc:	fe843783          	ld	a5,-24(s0)
    80000200:	00f707b3          	add	a5,a4,a5
    80000204:	0007c783          	lbu	a5,0(a5)
    80000208:	00078713          	mv	a4,a5
    8000020c:	02500793          	li	a5,37
    80000210:	12f71e63          	bne	a4,a5,8000034c <sprintf+0x1a4>
    80000214:	fe843783          	ld	a5,-24(s0)
    80000218:	00178793          	addi	a5,a5,1
    8000021c:	fa043703          	ld	a4,-96(s0)
    80000220:	00f707b3          	add	a5,a4,a5
    80000224:	0007c783          	lbu	a5,0(a5)
    80000228:	00078713          	mv	a4,a5
    8000022c:	06400793          	li	a5,100
    80000230:	10f71e63          	bne	a4,a5,8000034c <sprintf+0x1a4>
    80000234:	fc042a23          	sw	zero,-44(s0)
    80000238:	00100793          	li	a5,1
    8000023c:	fcf42623          	sw	a5,-52(s0)
    80000240:	fb843783          	ld	a5,-72(s0)
    80000244:	00878713          	addi	a4,a5,8
    80000248:	fae43c23          	sd	a4,-72(s0)
    8000024c:	0007a783          	lw	a5,0(a5)
    80000250:	fcf42423          	sw	a5,-56(s0)
    80000254:	02c0006f          	j	80000280 <sprintf+0xd8>
    80000258:	fd442783          	lw	a5,-44(s0)
    8000025c:	0017879b          	addiw	a5,a5,1
    80000260:	fcf42a23          	sw	a5,-44(s0)
    80000264:	fcc42783          	lw	a5,-52(s0)
    80000268:	00078713          	mv	a4,a5
    8000026c:	00070793          	mv	a5,a4
    80000270:	0027979b          	slliw	a5,a5,0x2
    80000274:	00e787bb          	addw	a5,a5,a4
    80000278:	0017979b          	slliw	a5,a5,0x1
    8000027c:	fcf42623          	sw	a5,-52(s0)
    80000280:	fc842783          	lw	a5,-56(s0)
    80000284:	00078713          	mv	a4,a5
    80000288:	fcc42783          	lw	a5,-52(s0)
    8000028c:	02f747bb          	divw	a5,a4,a5
    80000290:	0007879b          	sext.w	a5,a5
    80000294:	fc0792e3          	bnez	a5,80000258 <sprintf+0xb0>
    80000298:	fcc42783          	lw	a5,-52(s0)
    8000029c:	00078713          	mv	a4,a5
    800002a0:	00a00793          	li	a5,10
    800002a4:	02f747bb          	divw	a5,a4,a5
    800002a8:	fcf42623          	sw	a5,-52(s0)
    800002ac:	fc042823          	sw	zero,-48(s0)
    800002b0:	0740006f          	j	80000324 <sprintf+0x17c>
    800002b4:	fc842783          	lw	a5,-56(s0)
    800002b8:	00078713          	mv	a4,a5
    800002bc:	fcc42783          	lw	a5,-52(s0)
    800002c0:	02f747bb          	divw	a5,a4,a5
    800002c4:	0007879b          	sext.w	a5,a5
    800002c8:	0ff7f713          	zext.b	a4,a5
    800002cc:	fa843683          	ld	a3,-88(s0)
    800002d0:	fd843783          	ld	a5,-40(s0)
    800002d4:	00f687b3          	add	a5,a3,a5
    800002d8:	0307071b          	addiw	a4,a4,48
    800002dc:	0ff77713          	zext.b	a4,a4
    800002e0:	00e78023          	sb	a4,0(a5)
    800002e4:	fc842783          	lw	a5,-56(s0)
    800002e8:	00078713          	mv	a4,a5
    800002ec:	fcc42783          	lw	a5,-52(s0)
    800002f0:	02f767bb          	remw	a5,a4,a5
    800002f4:	fcf42423          	sw	a5,-56(s0)
    800002f8:	fcc42783          	lw	a5,-52(s0)
    800002fc:	00078713          	mv	a4,a5
    80000300:	00a00793          	li	a5,10
    80000304:	02f747bb          	divw	a5,a4,a5
    80000308:	fcf42623          	sw	a5,-52(s0)
    8000030c:	fd843783          	ld	a5,-40(s0)
    80000310:	00178793          	addi	a5,a5,1
    80000314:	fcf43c23          	sd	a5,-40(s0)
    80000318:	fd042783          	lw	a5,-48(s0)
    8000031c:	0017879b          	addiw	a5,a5,1
    80000320:	fcf42823          	sw	a5,-48(s0)
    80000324:	fd042783          	lw	a5,-48(s0)
    80000328:	00078713          	mv	a4,a5
    8000032c:	fd442783          	lw	a5,-44(s0)
    80000330:	0007071b          	sext.w	a4,a4
    80000334:	0007879b          	sext.w	a5,a5
    80000338:	f6f74ee3          	blt	a4,a5,800002b4 <sprintf+0x10c>
    8000033c:	fe843783          	ld	a5,-24(s0)
    80000340:	00178793          	addi	a5,a5,1
    80000344:	fef43423          	sd	a5,-24(s0)
    80000348:	0e00006f          	j	80000428 <sprintf+0x280>
    8000034c:	fa043703          	ld	a4,-96(s0)
    80000350:	fe843783          	ld	a5,-24(s0)
    80000354:	00f707b3          	add	a5,a4,a5
    80000358:	0007c783          	lbu	a5,0(a5)
    8000035c:	00078713          	mv	a4,a5
    80000360:	02500793          	li	a5,37
    80000364:	08f71c63          	bne	a4,a5,800003fc <sprintf+0x254>
    80000368:	fe843783          	ld	a5,-24(s0)
    8000036c:	00178793          	addi	a5,a5,1
    80000370:	fa043703          	ld	a4,-96(s0)
    80000374:	00f707b3          	add	a5,a4,a5
    80000378:	0007c783          	lbu	a5,0(a5)
    8000037c:	00078713          	mv	a4,a5
    80000380:	07300793          	li	a5,115
    80000384:	06f71c63          	bne	a4,a5,800003fc <sprintf+0x254>
    80000388:	fb843783          	ld	a5,-72(s0)
    8000038c:	00878713          	addi	a4,a5,8
    80000390:	fae43c23          	sd	a4,-72(s0)
    80000394:	0007b783          	ld	a5,0(a5)
    80000398:	fcf43023          	sd	a5,-64(s0)
    8000039c:	03c0006f          	j	800003d8 <sprintf+0x230>
    800003a0:	fc043703          	ld	a4,-64(s0)
    800003a4:	fe043783          	ld	a5,-32(s0)
    800003a8:	00f70733          	add	a4,a4,a5
    800003ac:	fa843683          	ld	a3,-88(s0)
    800003b0:	fd843783          	ld	a5,-40(s0)
    800003b4:	00f687b3          	add	a5,a3,a5
    800003b8:	00074703          	lbu	a4,0(a4)
    800003bc:	00e78023          	sb	a4,0(a5)
    800003c0:	fd843783          	ld	a5,-40(s0)
    800003c4:	00178793          	addi	a5,a5,1
    800003c8:	fcf43c23          	sd	a5,-40(s0)
    800003cc:	fe043783          	ld	a5,-32(s0)
    800003d0:	00178793          	addi	a5,a5,1
    800003d4:	fef43023          	sd	a5,-32(s0)
    800003d8:	fc043703          	ld	a4,-64(s0)
    800003dc:	fe043783          	ld	a5,-32(s0)
    800003e0:	00f707b3          	add	a5,a4,a5
    800003e4:	0007c783          	lbu	a5,0(a5)
    800003e8:	fa079ce3          	bnez	a5,800003a0 <sprintf+0x1f8>
    800003ec:	fe843783          	ld	a5,-24(s0)
    800003f0:	00178793          	addi	a5,a5,1
    800003f4:	fef43423          	sd	a5,-24(s0)
    800003f8:	0300006f          	j	80000428 <sprintf+0x280>
    800003fc:	fa043703          	ld	a4,-96(s0)
    80000400:	fe843783          	ld	a5,-24(s0)
    80000404:	00f70733          	add	a4,a4,a5
    80000408:	fa843683          	ld	a3,-88(s0)
    8000040c:	fd843783          	ld	a5,-40(s0)
    80000410:	00f687b3          	add	a5,a3,a5
    80000414:	00074703          	lbu	a4,0(a4)
    80000418:	00e78023          	sb	a4,0(a5)
    8000041c:	fd843783          	ld	a5,-40(s0)
    80000420:	00178793          	addi	a5,a5,1
    80000424:	fcf43c23          	sd	a5,-40(s0)
    80000428:	fe843783          	ld	a5,-24(s0)
    8000042c:	00178793          	addi	a5,a5,1
    80000430:	fef43423          	sd	a5,-24(s0)
    80000434:	fa043703          	ld	a4,-96(s0)
    80000438:	fe843783          	ld	a5,-24(s0)
    8000043c:	00f707b3          	add	a5,a4,a5
    80000440:	0007c783          	lbu	a5,0(a5)
    80000444:	da079ae3          	bnez	a5,800001f8 <sprintf+0x50>
    80000448:	fa843703          	ld	a4,-88(s0)
    8000044c:	fd843783          	ld	a5,-40(s0)
    80000450:	00f707b3          	add	a5,a4,a5
    80000454:	00078023          	sb	zero,0(a5)
    80000458:	00000793          	li	a5,0
    8000045c:	00078513          	mv	a0,a5
    80000460:	06813403          	ld	s0,104(sp)
    80000464:	0a010113          	addi	sp,sp,160
    80000468:	00008067          	ret

000000008000046c <strcmp>:
    8000046c:	fd010113          	addi	sp,sp,-48
    80000470:	02813423          	sd	s0,40(sp)
    80000474:	03010413          	addi	s0,sp,48
    80000478:	fca43c23          	sd	a0,-40(s0)
    8000047c:	fcb43823          	sd	a1,-48(s0)
    80000480:	fe043423          	sd	zero,-24(s0)
    80000484:	fd843783          	ld	a5,-40(s0)
    80000488:	00078663          	beqz	a5,80000494 <strcmp+0x28>
    8000048c:	fd043783          	ld	a5,-48(s0)
    80000490:	06079c63          	bnez	a5,80000508 <strcmp+0x9c>
    80000494:	00000793          	li	a5,0
    80000498:	09c0006f          	j	80000534 <strcmp+0xc8>
    8000049c:	fd843703          	ld	a4,-40(s0)
    800004a0:	fe843783          	ld	a5,-24(s0)
    800004a4:	00f707b3          	add	a5,a4,a5
    800004a8:	0007c683          	lbu	a3,0(a5)
    800004ac:	fd043703          	ld	a4,-48(s0)
    800004b0:	fe843783          	ld	a5,-24(s0)
    800004b4:	00f707b3          	add	a5,a4,a5
    800004b8:	0007c783          	lbu	a5,0(a5)
    800004bc:	00068713          	mv	a4,a3
    800004c0:	00f77663          	bgeu	a4,a5,800004cc <strcmp+0x60>
    800004c4:	fff00793          	li	a5,-1
    800004c8:	06c0006f          	j	80000534 <strcmp+0xc8>
    800004cc:	fd843703          	ld	a4,-40(s0)
    800004d0:	fe843783          	ld	a5,-24(s0)
    800004d4:	00f707b3          	add	a5,a4,a5
    800004d8:	0007c683          	lbu	a3,0(a5)
    800004dc:	fd043703          	ld	a4,-48(s0)
    800004e0:	fe843783          	ld	a5,-24(s0)
    800004e4:	00f707b3          	add	a5,a4,a5
    800004e8:	0007c783          	lbu	a5,0(a5)
    800004ec:	00068713          	mv	a4,a3
    800004f0:	00e7f663          	bgeu	a5,a4,800004fc <strcmp+0x90>
    800004f4:	00100793          	li	a5,1
    800004f8:	03c0006f          	j	80000534 <strcmp+0xc8>
    800004fc:	fe843783          	ld	a5,-24(s0)
    80000500:	00178793          	addi	a5,a5,1
    80000504:	fef43423          	sd	a5,-24(s0)
    80000508:	fd843703          	ld	a4,-40(s0)
    8000050c:	fe843783          	ld	a5,-24(s0)
    80000510:	00f707b3          	add	a5,a4,a5
    80000514:	0007c783          	lbu	a5,0(a5)
    80000518:	00078c63          	beqz	a5,80000530 <strcmp+0xc4>
    8000051c:	fd043703          	ld	a4,-48(s0)
    80000520:	fe843783          	ld	a5,-24(s0)
    80000524:	00f707b3          	add	a5,a4,a5
    80000528:	0007c783          	lbu	a5,0(a5)
    8000052c:	f60798e3          	bnez	a5,8000049c <strcmp+0x30>
    80000530:	00000793          	li	a5,0
    80000534:	00078513          	mv	a0,a5
    80000538:	02813403          	ld	s0,40(sp)
    8000053c:	03010113          	addi	sp,sp,48
    80000540:	00008067          	ret
