
/home/wuchenze/riscv-proj/sim/build/leap-year.elf:     file format elf64-littleriscv


Disassembly of section .text:

0000000080000000 <_start>:
    80000000:	00001417          	auipc	s0,0x1
    80000004:	00040413          	mv	s0,s0
    80000008:	00009117          	auipc	sp,0x9
    8000000c:	ff810113          	addi	sp,sp,-8 # 80009000 <_end>
    80000010:	174000ef          	jal	ra,80000184 <_trm_init>

0000000080000014 <check>:
    80000014:	fe010113          	addi	sp,sp,-32
    80000018:	00113c23          	sd	ra,24(sp)
    8000001c:	00813823          	sd	s0,16(sp)
    80000020:	02010413          	addi	s0,sp,32
    80000024:	00050793          	mv	a5,a0
    80000028:	fef407a3          	sb	a5,-17(s0) # 80000fef <_bss_start+0xc3b>
    8000002c:	fef44783          	lbu	a5,-17(s0)
    80000030:	0017c793          	xori	a5,a5,1
    80000034:	0ff7f793          	zext.b	a5,a5
    80000038:	00078663          	beqz	a5,80000044 <check+0x30>
    8000003c:	00100513          	li	a0,1
    80000040:	120000ef          	jal	ra,80000160 <halt>
    80000044:	00000013          	nop
    80000048:	01813083          	ld	ra,24(sp)
    8000004c:	01013403          	ld	s0,16(sp)
    80000050:	02010113          	addi	sp,sp,32
    80000054:	00008067          	ret

0000000080000058 <is_leap_year>:
    80000058:	fe010113          	addi	sp,sp,-32
    8000005c:	00813c23          	sd	s0,24(sp)
    80000060:	02010413          	addi	s0,sp,32
    80000064:	00050793          	mv	a5,a0
    80000068:	fef42623          	sw	a5,-20(s0)
    8000006c:	fec42783          	lw	a5,-20(s0)
    80000070:	0037f793          	andi	a5,a5,3
    80000074:	0007879b          	sext.w	a5,a5
    80000078:	00079e63          	bnez	a5,80000094 <is_leap_year+0x3c>
    8000007c:	fec42783          	lw	a5,-20(s0)
    80000080:	00078713          	mv	a4,a5
    80000084:	06400793          	li	a5,100
    80000088:	02f767bb          	remw	a5,a4,a5
    8000008c:	0007879b          	sext.w	a5,a5
    80000090:	00079e63          	bnez	a5,800000ac <is_leap_year+0x54>
    80000094:	fec42783          	lw	a5,-20(s0)
    80000098:	00078713          	mv	a4,a5
    8000009c:	19000793          	li	a5,400
    800000a0:	02f767bb          	remw	a5,a4,a5
    800000a4:	0007879b          	sext.w	a5,a5
    800000a8:	00079663          	bnez	a5,800000b4 <is_leap_year+0x5c>
    800000ac:	00100793          	li	a5,1
    800000b0:	0080006f          	j	800000b8 <is_leap_year+0x60>
    800000b4:	00000793          	li	a5,0
    800000b8:	00078513          	mv	a0,a5
    800000bc:	01813403          	ld	s0,24(sp)
    800000c0:	02010113          	addi	sp,sp,32
    800000c4:	00008067          	ret

00000000800000c8 <main>:
    800000c8:	fe010113          	addi	sp,sp,-32
    800000cc:	00113c23          	sd	ra,24(sp)
    800000d0:	00813823          	sd	s0,16(sp)
    800000d4:	02010413          	addi	s0,sp,32
    800000d8:	fe042623          	sw	zero,-20(s0)
    800000dc:	05c0006f          	j	80000138 <main+0x70>
    800000e0:	fec42783          	lw	a5,-20(s0)
    800000e4:	7627879b          	addiw	a5,a5,1890
    800000e8:	0007879b          	sext.w	a5,a5
    800000ec:	00078513          	mv	a0,a5
    800000f0:	f69ff0ef          	jal	ra,80000058 <is_leap_year>
    800000f4:	00050793          	mv	a5,a0
    800000f8:	00078693          	mv	a3,a5
    800000fc:	00000717          	auipc	a4,0x0
    80000100:	0c470713          	addi	a4,a4,196 # 800001c0 <ans>
    80000104:	fec42783          	lw	a5,-20(s0)
    80000108:	00279793          	slli	a5,a5,0x2
    8000010c:	00f707b3          	add	a5,a4,a5
    80000110:	0007a783          	lw	a5,0(a5)
    80000114:	00068713          	mv	a4,a3
    80000118:	40f707b3          	sub	a5,a4,a5
    8000011c:	0017b793          	seqz	a5,a5
    80000120:	0ff7f793          	zext.b	a5,a5
    80000124:	00078513          	mv	a0,a5
    80000128:	eedff0ef          	jal	ra,80000014 <check>
    8000012c:	fec42783          	lw	a5,-20(s0)
    80000130:	0017879b          	addiw	a5,a5,1
    80000134:	fef42623          	sw	a5,-20(s0)
    80000138:	fec42783          	lw	a5,-20(s0)
    8000013c:	0007871b          	sext.w	a4,a5
    80000140:	07c00793          	li	a5,124
    80000144:	f8e7dee3          	bge	a5,a4,800000e0 <main+0x18>
    80000148:	00000793          	li	a5,0
    8000014c:	00078513          	mv	a0,a5
    80000150:	01813083          	ld	ra,24(sp)
    80000154:	01013403          	ld	s0,16(sp)
    80000158:	02010113          	addi	sp,sp,32
    8000015c:	00008067          	ret

0000000080000160 <halt>:
    80000160:	fe010113          	addi	sp,sp,-32
    80000164:	00813c23          	sd	s0,24(sp)
    80000168:	02010413          	addi	s0,sp,32
    8000016c:	00050793          	mv	a5,a0
    80000170:	fef42623          	sw	a5,-20(s0)
    80000174:	fec42783          	lw	a5,-20(s0)
    80000178:	00078513          	mv	a0,a5
    8000017c:	00100073          	ebreak
    80000180:	0000006f          	j	80000180 <halt+0x20>

0000000080000184 <_trm_init>:
    80000184:	fe010113          	addi	sp,sp,-32
    80000188:	00113c23          	sd	ra,24(sp)
    8000018c:	00813823          	sd	s0,16(sp)
    80000190:	02010413          	addi	s0,sp,32
    80000194:	00000517          	auipc	a0,0x0
    80000198:	02450513          	addi	a0,a0,36 # 800001b8 <mainargs>
    8000019c:	f2dff0ef          	jal	ra,800000c8 <main>
    800001a0:	00050793          	mv	a5,a0
    800001a4:	fef42623          	sw	a5,-20(s0)
    800001a8:	fec42783          	lw	a5,-20(s0)
    800001ac:	00078513          	mv	a0,a5
    800001b0:	fb1ff0ef          	jal	ra,80000160 <halt>
