
/home/wuchenze/riscv-proj/sim/build/max.elf:     file format elf64-littleriscv


Disassembly of section .text:

0000000080000000 <_start>:
    80000000:	00001417          	auipc	s0,0x1
    80000004:	00040413          	mv	s0,s0
    80000008:	00009117          	auipc	sp,0x9
    8000000c:	ff810113          	addi	sp,sp,-8 # 80009000 <_end>
    80000010:	1fc000ef          	jal	ra,8000020c <_trm_init>

0000000080000014 <check>:
    80000014:	fe010113          	addi	sp,sp,-32
    80000018:	00113c23          	sd	ra,24(sp)
    8000001c:	00813823          	sd	s0,16(sp)
    80000020:	02010413          	addi	s0,sp,32
    80000024:	00050793          	mv	a5,a0
    80000028:	fef407a3          	sb	a5,-17(s0) # 80000fef <_bss_start+0xc87>
    8000002c:	fef44783          	lbu	a5,-17(s0)
    80000030:	0017c793          	xori	a5,a5,1
    80000034:	0ff7f793          	zext.b	a5,a5
    80000038:	00078663          	beqz	a5,80000044 <check+0x30>
    8000003c:	00100513          	li	a0,1
    80000040:	1a8000ef          	jal	ra,800001e8 <halt>
    80000044:	00000013          	nop
    80000048:	01813083          	ld	ra,24(sp)
    8000004c:	01013403          	ld	s0,16(sp)
    80000050:	02010113          	addi	sp,sp,32
    80000054:	00008067          	ret

0000000080000058 <max>:
    80000058:	fd010113          	addi	sp,sp,-48
    8000005c:	02813423          	sd	s0,40(sp)
    80000060:	03010413          	addi	s0,sp,48
    80000064:	00050793          	mv	a5,a0
    80000068:	00058713          	mv	a4,a1
    8000006c:	fcf42e23          	sw	a5,-36(s0)
    80000070:	00070793          	mv	a5,a4
    80000074:	fcf42c23          	sw	a5,-40(s0)
    80000078:	fdc42783          	lw	a5,-36(s0)
    8000007c:	00078713          	mv	a4,a5
    80000080:	fd842783          	lw	a5,-40(s0)
    80000084:	0007071b          	sext.w	a4,a4
    80000088:	0007879b          	sext.w	a5,a5
    8000008c:	00e7d863          	bge	a5,a4,8000009c <max+0x44>
    80000090:	fdc42783          	lw	a5,-36(s0)
    80000094:	fef42623          	sw	a5,-20(s0)
    80000098:	00c0006f          	j	800000a4 <max+0x4c>
    8000009c:	fd842783          	lw	a5,-40(s0)
    800000a0:	fef42623          	sw	a5,-20(s0)
    800000a4:	fec42783          	lw	a5,-20(s0)
    800000a8:	00078513          	mv	a0,a5
    800000ac:	02813403          	ld	s0,40(sp)
    800000b0:	03010113          	addi	sp,sp,48
    800000b4:	00008067          	ret

00000000800000b8 <main>:
    800000b8:	fe010113          	addi	sp,sp,-32
    800000bc:	00113c23          	sd	ra,24(sp)
    800000c0:	00813823          	sd	s0,16(sp)
    800000c4:	02010413          	addi	s0,sp,32
    800000c8:	fe042223          	sw	zero,-28(s0)
    800000cc:	fe042623          	sw	zero,-20(s0)
    800000d0:	0d00006f          	j	800001a0 <main+0xe8>
    800000d4:	fe042423          	sw	zero,-24(s0)
    800000d8:	08c0006f          	j	80000164 <main+0xac>
    800000dc:	00000717          	auipc	a4,0x0
    800000e0:	16c70713          	addi	a4,a4,364 # 80000248 <test_data>
    800000e4:	fec42783          	lw	a5,-20(s0)
    800000e8:	00279793          	slli	a5,a5,0x2
    800000ec:	00f707b3          	add	a5,a4,a5
    800000f0:	0007a683          	lw	a3,0(a5)
    800000f4:	00000717          	auipc	a4,0x0
    800000f8:	15470713          	addi	a4,a4,340 # 80000248 <test_data>
    800000fc:	fe842783          	lw	a5,-24(s0)
    80000100:	00279793          	slli	a5,a5,0x2
    80000104:	00f707b3          	add	a5,a4,a5
    80000108:	0007a783          	lw	a5,0(a5)
    8000010c:	00078593          	mv	a1,a5
    80000110:	00068513          	mv	a0,a3
    80000114:	f45ff0ef          	jal	ra,80000058 <max>
    80000118:	00050793          	mv	a5,a0
    8000011c:	00078693          	mv	a3,a5
    80000120:	fe442783          	lw	a5,-28(s0)
    80000124:	0017871b          	addiw	a4,a5,1
    80000128:	fee42223          	sw	a4,-28(s0)
    8000012c:	00000717          	auipc	a4,0x0
    80000130:	13c70713          	addi	a4,a4,316 # 80000268 <ans>
    80000134:	00279793          	slli	a5,a5,0x2
    80000138:	00f707b3          	add	a5,a4,a5
    8000013c:	0007a783          	lw	a5,0(a5)
    80000140:	00068713          	mv	a4,a3
    80000144:	40f707b3          	sub	a5,a4,a5
    80000148:	0017b793          	seqz	a5,a5
    8000014c:	0ff7f793          	zext.b	a5,a5
    80000150:	00078513          	mv	a0,a5
    80000154:	ec1ff0ef          	jal	ra,80000014 <check>
    80000158:	fe842783          	lw	a5,-24(s0)
    8000015c:	0017879b          	addiw	a5,a5,1
    80000160:	fef42423          	sw	a5,-24(s0)
    80000164:	fe842783          	lw	a5,-24(s0)
    80000168:	00078713          	mv	a4,a5
    8000016c:	00700793          	li	a5,7
    80000170:	f6e7f6e3          	bgeu	a5,a4,800000dc <main+0x24>
    80000174:	fe842783          	lw	a5,-24(s0)
    80000178:	0007871b          	sext.w	a4,a5
    8000017c:	00800793          	li	a5,8
    80000180:	40f707b3          	sub	a5,a4,a5
    80000184:	0017b793          	seqz	a5,a5
    80000188:	0ff7f793          	zext.b	a5,a5
    8000018c:	00078513          	mv	a0,a5
    80000190:	e85ff0ef          	jal	ra,80000014 <check>
    80000194:	fec42783          	lw	a5,-20(s0)
    80000198:	0017879b          	addiw	a5,a5,1
    8000019c:	fef42623          	sw	a5,-20(s0)
    800001a0:	fec42783          	lw	a5,-20(s0)
    800001a4:	00078713          	mv	a4,a5
    800001a8:	00700793          	li	a5,7
    800001ac:	f2e7f4e3          	bgeu	a5,a4,800000d4 <main+0x1c>
    800001b0:	fec42783          	lw	a5,-20(s0)
    800001b4:	0007871b          	sext.w	a4,a5
    800001b8:	00800793          	li	a5,8
    800001bc:	40f707b3          	sub	a5,a4,a5
    800001c0:	0017b793          	seqz	a5,a5
    800001c4:	0ff7f793          	zext.b	a5,a5
    800001c8:	00078513          	mv	a0,a5
    800001cc:	e49ff0ef          	jal	ra,80000014 <check>
    800001d0:	00000793          	li	a5,0
    800001d4:	00078513          	mv	a0,a5
    800001d8:	01813083          	ld	ra,24(sp)
    800001dc:	01013403          	ld	s0,16(sp)
    800001e0:	02010113          	addi	sp,sp,32
    800001e4:	00008067          	ret

00000000800001e8 <halt>:
    800001e8:	fe010113          	addi	sp,sp,-32
    800001ec:	00813c23          	sd	s0,24(sp)
    800001f0:	02010413          	addi	s0,sp,32
    800001f4:	00050793          	mv	a5,a0
    800001f8:	fef42623          	sw	a5,-20(s0)
    800001fc:	fec42783          	lw	a5,-20(s0)
    80000200:	00078513          	mv	a0,a5
    80000204:	00100073          	ebreak
    80000208:	0000006f          	j	80000208 <halt+0x20>

000000008000020c <_trm_init>:
    8000020c:	fe010113          	addi	sp,sp,-32
    80000210:	00113c23          	sd	ra,24(sp)
    80000214:	00813823          	sd	s0,16(sp)
    80000218:	02010413          	addi	s0,sp,32
    8000021c:	00000517          	auipc	a0,0x0
    80000220:	02450513          	addi	a0,a0,36 # 80000240 <mainargs>
    80000224:	e95ff0ef          	jal	ra,800000b8 <main>
    80000228:	00050793          	mv	a5,a0
    8000022c:	fef42623          	sw	a5,-20(s0)
    80000230:	fec42783          	lw	a5,-20(s0)
    80000234:	00078513          	mv	a0,a5
    80000238:	fb1ff0ef          	jal	ra,800001e8 <halt>
