
/home/wuchenze/riscv-proj/sim/build/mov-c.elf:     file format elf64-littleriscv


Disassembly of section .text:

0000000080000000 <_start>:
    80000000:	00001417          	auipc	s0,0x1
    80000004:	00040413          	mv	s0,s0
    80000008:	00009117          	auipc	sp,0x9
    8000000c:	ff810113          	addi	sp,sp,-8 # 80009000 <_end>
    80000010:	240000ef          	jal	ra,80000250 <_trm_init>

0000000080000014 <check>:
    80000014:	fe010113          	addi	sp,sp,-32
    80000018:	00113c23          	sd	ra,24(sp)
    8000001c:	00813823          	sd	s0,16(sp)
    80000020:	02010413          	addi	s0,sp,32
    80000024:	00050793          	mv	a5,a0
    80000028:	fef407a3          	sb	a5,-17(s0) # 80000fef <b+0xd3f>
    8000002c:	fef44783          	lbu	a5,-17(s0)
    80000030:	0017c793          	xori	a5,a5,1
    80000034:	0ff7f793          	zext.b	a5,a5
    80000038:	00078663          	beqz	a5,80000044 <check+0x30>
    8000003c:	00100513          	li	a0,1
    80000040:	1ec000ef          	jal	ra,8000022c <halt>
    80000044:	00000013          	nop
    80000048:	01813083          	ld	ra,24(sp)
    8000004c:	01013403          	ld	s0,16(sp)
    80000050:	02010113          	addi	sp,sp,32
    80000054:	00008067          	ret

0000000080000058 <main>:
    80000058:	ff010113          	addi	sp,sp,-16
    8000005c:	00113423          	sd	ra,8(sp)
    80000060:	00813023          	sd	s0,0(sp)
    80000064:	01010413          	addi	s0,sp,16
    80000068:	00000797          	auipc	a5,0x0
    8000006c:	22078793          	addi	a5,a5,544 # 80000288 <A>
    80000070:	0007a023          	sw	zero,0(a5)
    80000074:	00000797          	auipc	a5,0x0
    80000078:	21478793          	addi	a5,a5,532 # 80000288 <A>
    8000007c:	00100713          	li	a4,1
    80000080:	00e7a223          	sw	a4,4(a5)
    80000084:	00000797          	auipc	a5,0x0
    80000088:	20478793          	addi	a5,a5,516 # 80000288 <A>
    8000008c:	00200713          	li	a4,2
    80000090:	00e7a423          	sw	a4,8(a5)
    80000094:	00000797          	auipc	a5,0x0
    80000098:	1f478793          	addi	a5,a5,500 # 80000288 <A>
    8000009c:	00300713          	li	a4,3
    800000a0:	00e7a623          	sw	a4,12(a5)
    800000a4:	00000797          	auipc	a5,0x0
    800000a8:	1e478793          	addi	a5,a5,484 # 80000288 <A>
    800000ac:	00400713          	li	a4,4
    800000b0:	00e7a823          	sw	a4,16(a5)
    800000b4:	00000797          	auipc	a5,0x0
    800000b8:	1d478793          	addi	a5,a5,468 # 80000288 <A>
    800000bc:	00c7a783          	lw	a5,12(a5)
    800000c0:	0007871b          	sext.w	a4,a5
    800000c4:	00000797          	auipc	a5,0x0
    800000c8:	1ec78793          	addi	a5,a5,492 # 800002b0 <b>
    800000cc:	00e7a023          	sw	a4,0(a5)
    800000d0:	00000797          	auipc	a5,0x0
    800000d4:	1e078793          	addi	a5,a5,480 # 800002b0 <b>
    800000d8:	0007a783          	lw	a5,0(a5)
    800000dc:	0007871b          	sext.w	a4,a5
    800000e0:	00000797          	auipc	a5,0x0
    800000e4:	1a878793          	addi	a5,a5,424 # 80000288 <A>
    800000e8:	00e7aa23          	sw	a4,20(a5)
    800000ec:	00000797          	auipc	a5,0x0
    800000f0:	19c78793          	addi	a5,a5,412 # 80000288 <A>
    800000f4:	0007a783          	lw	a5,0(a5)
    800000f8:	0007879b          	sext.w	a5,a5
    800000fc:	0017b793          	seqz	a5,a5
    80000100:	0ff7f793          	zext.b	a5,a5
    80000104:	00078513          	mv	a0,a5
    80000108:	f0dff0ef          	jal	ra,80000014 <check>
    8000010c:	00000797          	auipc	a5,0x0
    80000110:	17c78793          	addi	a5,a5,380 # 80000288 <A>
    80000114:	0047a783          	lw	a5,4(a5)
    80000118:	0007879b          	sext.w	a5,a5
    8000011c:	00078713          	mv	a4,a5
    80000120:	00100793          	li	a5,1
    80000124:	40f707b3          	sub	a5,a4,a5
    80000128:	0017b793          	seqz	a5,a5
    8000012c:	0ff7f793          	zext.b	a5,a5
    80000130:	00078513          	mv	a0,a5
    80000134:	ee1ff0ef          	jal	ra,80000014 <check>
    80000138:	00000797          	auipc	a5,0x0
    8000013c:	15078793          	addi	a5,a5,336 # 80000288 <A>
    80000140:	0087a783          	lw	a5,8(a5)
    80000144:	0007879b          	sext.w	a5,a5
    80000148:	00078713          	mv	a4,a5
    8000014c:	00200793          	li	a5,2
    80000150:	40f707b3          	sub	a5,a4,a5
    80000154:	0017b793          	seqz	a5,a5
    80000158:	0ff7f793          	zext.b	a5,a5
    8000015c:	00078513          	mv	a0,a5
    80000160:	eb5ff0ef          	jal	ra,80000014 <check>
    80000164:	00000797          	auipc	a5,0x0
    80000168:	12478793          	addi	a5,a5,292 # 80000288 <A>
    8000016c:	00c7a783          	lw	a5,12(a5)
    80000170:	0007879b          	sext.w	a5,a5
    80000174:	00078713          	mv	a4,a5
    80000178:	00300793          	li	a5,3
    8000017c:	40f707b3          	sub	a5,a4,a5
    80000180:	0017b793          	seqz	a5,a5
    80000184:	0ff7f793          	zext.b	a5,a5
    80000188:	00078513          	mv	a0,a5
    8000018c:	e89ff0ef          	jal	ra,80000014 <check>
    80000190:	00000797          	auipc	a5,0x0
    80000194:	0f878793          	addi	a5,a5,248 # 80000288 <A>
    80000198:	0107a783          	lw	a5,16(a5)
    8000019c:	0007879b          	sext.w	a5,a5
    800001a0:	00078713          	mv	a4,a5
    800001a4:	00400793          	li	a5,4
    800001a8:	40f707b3          	sub	a5,a4,a5
    800001ac:	0017b793          	seqz	a5,a5
    800001b0:	0ff7f793          	zext.b	a5,a5
    800001b4:	00078513          	mv	a0,a5
    800001b8:	e5dff0ef          	jal	ra,80000014 <check>
    800001bc:	00000797          	auipc	a5,0x0
    800001c0:	0f478793          	addi	a5,a5,244 # 800002b0 <b>
    800001c4:	0007a783          	lw	a5,0(a5)
    800001c8:	0007879b          	sext.w	a5,a5
    800001cc:	00078713          	mv	a4,a5
    800001d0:	00300793          	li	a5,3
    800001d4:	40f707b3          	sub	a5,a4,a5
    800001d8:	0017b793          	seqz	a5,a5
    800001dc:	0ff7f793          	zext.b	a5,a5
    800001e0:	00078513          	mv	a0,a5
    800001e4:	e31ff0ef          	jal	ra,80000014 <check>
    800001e8:	00000797          	auipc	a5,0x0
    800001ec:	0a078793          	addi	a5,a5,160 # 80000288 <A>
    800001f0:	0147a783          	lw	a5,20(a5)
    800001f4:	0007879b          	sext.w	a5,a5
    800001f8:	00078713          	mv	a4,a5
    800001fc:	00300793          	li	a5,3
    80000200:	40f707b3          	sub	a5,a4,a5
    80000204:	0017b793          	seqz	a5,a5
    80000208:	0ff7f793          	zext.b	a5,a5
    8000020c:	00078513          	mv	a0,a5
    80000210:	e05ff0ef          	jal	ra,80000014 <check>
    80000214:	00000793          	li	a5,0
    80000218:	00078513          	mv	a0,a5
    8000021c:	00813083          	ld	ra,8(sp)
    80000220:	00013403          	ld	s0,0(sp)
    80000224:	01010113          	addi	sp,sp,16
    80000228:	00008067          	ret

000000008000022c <halt>:
    8000022c:	fe010113          	addi	sp,sp,-32
    80000230:	00813c23          	sd	s0,24(sp)
    80000234:	02010413          	addi	s0,sp,32
    80000238:	00050793          	mv	a5,a0
    8000023c:	fef42623          	sw	a5,-20(s0)
    80000240:	fec42783          	lw	a5,-20(s0)
    80000244:	00078513          	mv	a0,a5
    80000248:	00100073          	ebreak
    8000024c:	0000006f          	j	8000024c <halt+0x20>

0000000080000250 <_trm_init>:
    80000250:	fe010113          	addi	sp,sp,-32
    80000254:	00113c23          	sd	ra,24(sp)
    80000258:	00813823          	sd	s0,16(sp)
    8000025c:	02010413          	addi	s0,sp,32
    80000260:	00000517          	auipc	a0,0x0
    80000264:	02050513          	addi	a0,a0,32 # 80000280 <_etext>
    80000268:	df1ff0ef          	jal	ra,80000058 <main>
    8000026c:	00050793          	mv	a5,a0
    80000270:	fef42623          	sw	a5,-20(s0)
    80000274:	fec42783          	lw	a5,-20(s0)
    80000278:	00078513          	mv	a0,a5
    8000027c:	fb1ff0ef          	jal	ra,8000022c <halt>
