
/home/wuchenze/riscv-proj/riscv_compile/build/pascal.elf:     file format elf64-littleriscv


Disassembly of section .text:

0000000080000000 <_start>:
    80000000:	00000413          	li	s0,0
    80000004:	00009117          	auipc	sp,0x9
    80000008:	ffc10113          	addi	sp,sp,-4 # 80009000 <_end>
    8000000c:	214000ef          	jal	ra,80000220 <_trm_init>

0000000080000010 <check>:
    80000010:	fe010113          	addi	sp,sp,-32
    80000014:	00113c23          	sd	ra,24(sp)
    80000018:	00813823          	sd	s0,16(sp)
    8000001c:	02010413          	addi	s0,sp,32
    80000020:	00050793          	mv	a5,a0
    80000024:	fef407a3          	sb	a5,-17(s0)
    80000028:	fef44783          	lbu	a5,-17(s0)
    8000002c:	0017c793          	xori	a5,a5,1
    80000030:	0ff7f793          	zext.b	a5,a5
    80000034:	00078663          	beqz	a5,80000040 <check+0x30>
    80000038:	00100513          	li	a0,1
    8000003c:	1c0000ef          	jal	ra,800001fc <halt>
    80000040:	00000013          	nop
    80000044:	01813083          	ld	ra,24(sp)
    80000048:	01013403          	ld	s0,16(sp)
    8000004c:	02010113          	addi	sp,sp,32
    80000050:	00008067          	ret

0000000080000054 <main>:
    80000054:	fe010113          	addi	sp,sp,-32
    80000058:	00113c23          	sd	ra,24(sp)
    8000005c:	00813823          	sd	s0,16(sp)
    80000060:	02010413          	addi	s0,sp,32
    80000064:	00000797          	auipc	a5,0x0
    80000068:	27478793          	addi	a5,a5,628 # 800002d8 <a>
    8000006c:	00100713          	li	a4,1
    80000070:	00e7a223          	sw	a4,4(a5)
    80000074:	00000797          	auipc	a5,0x0
    80000078:	26478793          	addi	a5,a5,612 # 800002d8 <a>
    8000007c:	0047a703          	lw	a4,4(a5)
    80000080:	00000797          	auipc	a5,0x0
    80000084:	25878793          	addi	a5,a5,600 # 800002d8 <a>
    80000088:	00e7a023          	sw	a4,0(a5)
    8000008c:	00200793          	li	a5,2
    80000090:	fef42623          	sw	a5,-20(s0)
    80000094:	0b40006f          	j	80000148 <main+0xf4>
    80000098:	00100793          	li	a5,1
    8000009c:	fef42223          	sw	a5,-28(s0)
    800000a0:	00100793          	li	a5,1
    800000a4:	fef42423          	sw	a5,-24(s0)
    800000a8:	0600006f          	j	80000108 <main+0xb4>
    800000ac:	00000717          	auipc	a4,0x0
    800000b0:	22c70713          	addi	a4,a4,556 # 800002d8 <a>
    800000b4:	fe842783          	lw	a5,-24(s0)
    800000b8:	00279793          	slli	a5,a5,0x2
    800000bc:	00f707b3          	add	a5,a4,a5
    800000c0:	0007a783          	lw	a5,0(a5)
    800000c4:	fef42023          	sw	a5,-32(s0)
    800000c8:	fe442783          	lw	a5,-28(s0)
    800000cc:	00078713          	mv	a4,a5
    800000d0:	fe042783          	lw	a5,-32(s0)
    800000d4:	00f707bb          	addw	a5,a4,a5
    800000d8:	0007871b          	sext.w	a4,a5
    800000dc:	00000697          	auipc	a3,0x0
    800000e0:	1fc68693          	addi	a3,a3,508 # 800002d8 <a>
    800000e4:	fe842783          	lw	a5,-24(s0)
    800000e8:	00279793          	slli	a5,a5,0x2
    800000ec:	00f687b3          	add	a5,a3,a5
    800000f0:	00e7a023          	sw	a4,0(a5)
    800000f4:	fe042783          	lw	a5,-32(s0)
    800000f8:	fef42223          	sw	a5,-28(s0)
    800000fc:	fe842783          	lw	a5,-24(s0)
    80000100:	0017879b          	addiw	a5,a5,1
    80000104:	fef42423          	sw	a5,-24(s0)
    80000108:	fe842783          	lw	a5,-24(s0)
    8000010c:	00078713          	mv	a4,a5
    80000110:	fec42783          	lw	a5,-20(s0)
    80000114:	0007071b          	sext.w	a4,a4
    80000118:	0007879b          	sext.w	a5,a5
    8000011c:	f8f748e3          	blt	a4,a5,800000ac <main+0x58>
    80000120:	00000717          	auipc	a4,0x0
    80000124:	1b870713          	addi	a4,a4,440 # 800002d8 <a>
    80000128:	fec42783          	lw	a5,-20(s0)
    8000012c:	00279793          	slli	a5,a5,0x2
    80000130:	00f707b3          	add	a5,a4,a5
    80000134:	00100713          	li	a4,1
    80000138:	00e7a023          	sw	a4,0(a5)
    8000013c:	fec42783          	lw	a5,-20(s0)
    80000140:	0017879b          	addiw	a5,a5,1
    80000144:	fef42623          	sw	a5,-20(s0)
    80000148:	fec42783          	lw	a5,-20(s0)
    8000014c:	0007871b          	sext.w	a4,a5
    80000150:	01e00793          	li	a5,30
    80000154:	f4e7d2e3          	bge	a5,a4,80000098 <main+0x44>
    80000158:	fe042423          	sw	zero,-24(s0)
    8000015c:	0580006f          	j	800001b4 <main+0x160>
    80000160:	00000717          	auipc	a4,0x0
    80000164:	17870713          	addi	a4,a4,376 # 800002d8 <a>
    80000168:	fe842783          	lw	a5,-24(s0)
    8000016c:	00279793          	slli	a5,a5,0x2
    80000170:	00f707b3          	add	a5,a4,a5
    80000174:	0007a683          	lw	a3,0(a5)
    80000178:	00000717          	auipc	a4,0x0
    8000017c:	0e070713          	addi	a4,a4,224 # 80000258 <ans>
    80000180:	fe842783          	lw	a5,-24(s0)
    80000184:	00279793          	slli	a5,a5,0x2
    80000188:	00f707b3          	add	a5,a4,a5
    8000018c:	0007a783          	lw	a5,0(a5)
    80000190:	00068713          	mv	a4,a3
    80000194:	40f707b3          	sub	a5,a4,a5
    80000198:	0017b793          	seqz	a5,a5
    8000019c:	0ff7f793          	zext.b	a5,a5
    800001a0:	00078513          	mv	a0,a5
    800001a4:	e6dff0ef          	jal	ra,80000010 <check>
    800001a8:	fe842783          	lw	a5,-24(s0)
    800001ac:	0017879b          	addiw	a5,a5,1
    800001b0:	fef42423          	sw	a5,-24(s0)
    800001b4:	fe842783          	lw	a5,-24(s0)
    800001b8:	0007871b          	sext.w	a4,a5
    800001bc:	01e00793          	li	a5,30
    800001c0:	fae7d0e3          	bge	a5,a4,80000160 <main+0x10c>
    800001c4:	fe842783          	lw	a5,-24(s0)
    800001c8:	0007871b          	sext.w	a4,a5
    800001cc:	01f00793          	li	a5,31
    800001d0:	40f707b3          	sub	a5,a4,a5
    800001d4:	0017b793          	seqz	a5,a5
    800001d8:	0ff7f793          	zext.b	a5,a5
    800001dc:	00078513          	mv	a0,a5
    800001e0:	e31ff0ef          	jal	ra,80000010 <check>
    800001e4:	00000793          	li	a5,0
    800001e8:	00078513          	mv	a0,a5
    800001ec:	01813083          	ld	ra,24(sp)
    800001f0:	01013403          	ld	s0,16(sp)
    800001f4:	02010113          	addi	sp,sp,32
    800001f8:	00008067          	ret

00000000800001fc <halt>:
    800001fc:	fe010113          	addi	sp,sp,-32
    80000200:	00813c23          	sd	s0,24(sp)
    80000204:	02010413          	addi	s0,sp,32
    80000208:	00050793          	mv	a5,a0
    8000020c:	fef42623          	sw	a5,-20(s0)
    80000210:	fec42783          	lw	a5,-20(s0)
    80000214:	00078513          	mv	a0,a5
    80000218:	00100073          	ebreak
    8000021c:	0000006f          	j	8000021c <halt+0x20>

0000000080000220 <_trm_init>:
    80000220:	fe010113          	addi	sp,sp,-32
    80000224:	00113c23          	sd	ra,24(sp)
    80000228:	00813823          	sd	s0,16(sp)
    8000022c:	02010413          	addi	s0,sp,32
    80000230:	00000517          	auipc	a0,0x0
    80000234:	02050513          	addi	a0,a0,32 # 80000250 <_etext>
    80000238:	e1dff0ef          	jal	ra,80000054 <main>
    8000023c:	00050793          	mv	a5,a0
    80000240:	fef42623          	sw	a5,-20(s0)
    80000244:	fec42783          	lw	a5,-20(s0)
    80000248:	00078513          	mv	a0,a5
    8000024c:	fb1ff0ef          	jal	ra,800001fc <halt>
