
/home/wuchenze/riscv-proj/riscv_compile/build/quick-sort.elf:     file format elf64-littleriscv


Disassembly of section .text:

0000000080000000 <_start>:
    80000000:	00000413          	li	s0,0
    80000004:	00009117          	auipc	sp,0x9
    80000008:	ffc10113          	addi	sp,sp,-4 # 80009000 <_end>
    8000000c:	3d4000ef          	jal	ra,800003e0 <_trm_init>

0000000080000010 <check>:
    80000010:	fe010113          	addi	sp,sp,-32
    80000014:	00113c23          	sd	ra,24(sp)
    80000018:	00813823          	sd	s0,16(sp)
    8000001c:	02010413          	addi	s0,sp,32
    80000020:	00050793          	mv	a5,a0
    80000024:	fef407a3          	sb	a5,-17(s0)
    80000028:	fef44783          	lbu	a5,-17(s0)
    8000002c:	0017c793          	xori	a5,a5,1
    80000030:	0ff7f793          	zext.b	a5,a5
    80000034:	00078663          	beqz	a5,80000040 <check+0x30>
    80000038:	00100513          	li	a0,1
    8000003c:	380000ef          	jal	ra,800003bc <halt>
    80000040:	00000013          	nop
    80000044:	01813083          	ld	ra,24(sp)
    80000048:	01013403          	ld	s0,16(sp)
    8000004c:	02010113          	addi	sp,sp,32
    80000050:	00008067          	ret

0000000080000054 <partition>:
    80000054:	fd010113          	addi	sp,sp,-48
    80000058:	02813423          	sd	s0,40(sp)
    8000005c:	03010413          	addi	s0,sp,48
    80000060:	fca43c23          	sd	a0,-40(s0)
    80000064:	00058793          	mv	a5,a1
    80000068:	00060713          	mv	a4,a2
    8000006c:	fcf42a23          	sw	a5,-44(s0)
    80000070:	00070793          	mv	a5,a4
    80000074:	fcf42823          	sw	a5,-48(s0)
    80000078:	fd442783          	lw	a5,-44(s0)
    8000007c:	00279793          	slli	a5,a5,0x2
    80000080:	fd843703          	ld	a4,-40(s0)
    80000084:	00f707b3          	add	a5,a4,a5
    80000088:	0007a783          	lw	a5,0(a5)
    8000008c:	fef42223          	sw	a5,-28(s0)
    80000090:	fd442783          	lw	a5,-44(s0)
    80000094:	fef42623          	sw	a5,-20(s0)
    80000098:	fd042783          	lw	a5,-48(s0)
    8000009c:	fef42423          	sw	a5,-24(s0)
    800000a0:	0e00006f          	j	80000180 <partition+0x12c>
    800000a4:	fe842783          	lw	a5,-24(s0)
    800000a8:	fff7879b          	addiw	a5,a5,-1
    800000ac:	fef42423          	sw	a5,-24(s0)
    800000b0:	fec42783          	lw	a5,-20(s0)
    800000b4:	00078713          	mv	a4,a5
    800000b8:	fe842783          	lw	a5,-24(s0)
    800000bc:	0007071b          	sext.w	a4,a4
    800000c0:	0007879b          	sext.w	a5,a5
    800000c4:	02f75263          	bge	a4,a5,800000e8 <partition+0x94>
    800000c8:	fe842783          	lw	a5,-24(s0)
    800000cc:	00279793          	slli	a5,a5,0x2
    800000d0:	fd843703          	ld	a4,-40(s0)
    800000d4:	00f707b3          	add	a5,a4,a5
    800000d8:	0007a703          	lw	a4,0(a5)
    800000dc:	fe442783          	lw	a5,-28(s0)
    800000e0:	0007879b          	sext.w	a5,a5
    800000e4:	fce7c0e3          	blt	a5,a4,800000a4 <partition+0x50>
    800000e8:	fe842783          	lw	a5,-24(s0)
    800000ec:	00279793          	slli	a5,a5,0x2
    800000f0:	fd843703          	ld	a4,-40(s0)
    800000f4:	00f70733          	add	a4,a4,a5
    800000f8:	fec42783          	lw	a5,-20(s0)
    800000fc:	00279793          	slli	a5,a5,0x2
    80000100:	fd843683          	ld	a3,-40(s0)
    80000104:	00f687b3          	add	a5,a3,a5
    80000108:	00072703          	lw	a4,0(a4)
    8000010c:	00e7a023          	sw	a4,0(a5)
    80000110:	0100006f          	j	80000120 <partition+0xcc>
    80000114:	fec42783          	lw	a5,-20(s0)
    80000118:	0017879b          	addiw	a5,a5,1
    8000011c:	fef42623          	sw	a5,-20(s0)
    80000120:	fec42783          	lw	a5,-20(s0)
    80000124:	00078713          	mv	a4,a5
    80000128:	fe842783          	lw	a5,-24(s0)
    8000012c:	0007071b          	sext.w	a4,a4
    80000130:	0007879b          	sext.w	a5,a5
    80000134:	02f75263          	bge	a4,a5,80000158 <partition+0x104>
    80000138:	fec42783          	lw	a5,-20(s0)
    8000013c:	00279793          	slli	a5,a5,0x2
    80000140:	fd843703          	ld	a4,-40(s0)
    80000144:	00f707b3          	add	a5,a4,a5
    80000148:	0007a703          	lw	a4,0(a5)
    8000014c:	fe442783          	lw	a5,-28(s0)
    80000150:	0007879b          	sext.w	a5,a5
    80000154:	fce7d0e3          	bge	a5,a4,80000114 <partition+0xc0>
    80000158:	fec42783          	lw	a5,-20(s0)
    8000015c:	00279793          	slli	a5,a5,0x2
    80000160:	fd843703          	ld	a4,-40(s0)
    80000164:	00f70733          	add	a4,a4,a5
    80000168:	fe842783          	lw	a5,-24(s0)
    8000016c:	00279793          	slli	a5,a5,0x2
    80000170:	fd843683          	ld	a3,-40(s0)
    80000174:	00f687b3          	add	a5,a3,a5
    80000178:	00072703          	lw	a4,0(a4)
    8000017c:	00e7a023          	sw	a4,0(a5)
    80000180:	fec42783          	lw	a5,-20(s0)
    80000184:	00078713          	mv	a4,a5
    80000188:	fe842783          	lw	a5,-24(s0)
    8000018c:	0007071b          	sext.w	a4,a4
    80000190:	0007879b          	sext.w	a5,a5
    80000194:	f0f74ee3          	blt	a4,a5,800000b0 <partition+0x5c>
    80000198:	fec42783          	lw	a5,-20(s0)
    8000019c:	00279793          	slli	a5,a5,0x2
    800001a0:	fd843703          	ld	a4,-40(s0)
    800001a4:	00f707b3          	add	a5,a4,a5
    800001a8:	fe442703          	lw	a4,-28(s0)
    800001ac:	00e7a023          	sw	a4,0(a5)
    800001b0:	fec42783          	lw	a5,-20(s0)
    800001b4:	00078513          	mv	a0,a5
    800001b8:	02813403          	ld	s0,40(sp)
    800001bc:	03010113          	addi	sp,sp,48
    800001c0:	00008067          	ret

00000000800001c4 <quick_sort>:
    800001c4:	fd010113          	addi	sp,sp,-48
    800001c8:	02113423          	sd	ra,40(sp)
    800001cc:	02813023          	sd	s0,32(sp)
    800001d0:	03010413          	addi	s0,sp,48
    800001d4:	fca43c23          	sd	a0,-40(s0)
    800001d8:	00058793          	mv	a5,a1
    800001dc:	00060713          	mv	a4,a2
    800001e0:	fcf42a23          	sw	a5,-44(s0)
    800001e4:	00070793          	mv	a5,a4
    800001e8:	fcf42823          	sw	a5,-48(s0)
    800001ec:	fd442783          	lw	a5,-44(s0)
    800001f0:	00078713          	mv	a4,a5
    800001f4:	fd042783          	lw	a5,-48(s0)
    800001f8:	0007071b          	sext.w	a4,a4
    800001fc:	0007879b          	sext.w	a5,a5
    80000200:	06f75463          	bge	a4,a5,80000268 <quick_sort+0xa4>
    80000204:	fd042703          	lw	a4,-48(s0)
    80000208:	fd442783          	lw	a5,-44(s0)
    8000020c:	00070613          	mv	a2,a4
    80000210:	00078593          	mv	a1,a5
    80000214:	fd843503          	ld	a0,-40(s0)
    80000218:	e3dff0ef          	jal	ra,80000054 <partition>
    8000021c:	00050793          	mv	a5,a0
    80000220:	fef42623          	sw	a5,-20(s0)
    80000224:	fec42783          	lw	a5,-20(s0)
    80000228:	fff7879b          	addiw	a5,a5,-1
    8000022c:	0007871b          	sext.w	a4,a5
    80000230:	fd442783          	lw	a5,-44(s0)
    80000234:	00070613          	mv	a2,a4
    80000238:	00078593          	mv	a1,a5
    8000023c:	fd843503          	ld	a0,-40(s0)
    80000240:	f85ff0ef          	jal	ra,800001c4 <quick_sort>
    80000244:	fec42783          	lw	a5,-20(s0)
    80000248:	0017879b          	addiw	a5,a5,1
    8000024c:	0007879b          	sext.w	a5,a5
    80000250:	fd042703          	lw	a4,-48(s0)
    80000254:	00070613          	mv	a2,a4
    80000258:	00078593          	mv	a1,a5
    8000025c:	fd843503          	ld	a0,-40(s0)
    80000260:	f65ff0ef          	jal	ra,800001c4 <quick_sort>
    80000264:	0080006f          	j	8000026c <quick_sort+0xa8>
    80000268:	00000013          	nop
    8000026c:	02813083          	ld	ra,40(sp)
    80000270:	02013403          	ld	s0,32(sp)
    80000274:	03010113          	addi	sp,sp,48
    80000278:	00008067          	ret

000000008000027c <main>:
    8000027c:	fe010113          	addi	sp,sp,-32
    80000280:	00113c23          	sd	ra,24(sp)
    80000284:	00813823          	sd	s0,16(sp)
    80000288:	02010413          	addi	s0,sp,32
    8000028c:	01300613          	li	a2,19
    80000290:	00000593          	li	a1,0
    80000294:	00000517          	auipc	a0,0x0
    80000298:	18450513          	addi	a0,a0,388 # 80000418 <a>
    8000029c:	f29ff0ef          	jal	ra,800001c4 <quick_sort>
    800002a0:	fe042623          	sw	zero,-20(s0)
    800002a4:	0440006f          	j	800002e8 <main+0x6c>
    800002a8:	00000717          	auipc	a4,0x0
    800002ac:	17070713          	addi	a4,a4,368 # 80000418 <a>
    800002b0:	fec42783          	lw	a5,-20(s0)
    800002b4:	00279793          	slli	a5,a5,0x2
    800002b8:	00f707b3          	add	a5,a4,a5
    800002bc:	0007a703          	lw	a4,0(a5)
    800002c0:	fec42783          	lw	a5,-20(s0)
    800002c4:	0007879b          	sext.w	a5,a5
    800002c8:	40e787b3          	sub	a5,a5,a4
    800002cc:	0017b793          	seqz	a5,a5
    800002d0:	0ff7f793          	zext.b	a5,a5
    800002d4:	00078513          	mv	a0,a5
    800002d8:	d39ff0ef          	jal	ra,80000010 <check>
    800002dc:	fec42783          	lw	a5,-20(s0)
    800002e0:	0017879b          	addiw	a5,a5,1
    800002e4:	fef42623          	sw	a5,-20(s0)
    800002e8:	fec42783          	lw	a5,-20(s0)
    800002ec:	0007871b          	sext.w	a4,a5
    800002f0:	01300793          	li	a5,19
    800002f4:	fae7dae3          	bge	a5,a4,800002a8 <main+0x2c>
    800002f8:	fec42783          	lw	a5,-20(s0)
    800002fc:	0007871b          	sext.w	a4,a5
    80000300:	01400793          	li	a5,20
    80000304:	40f707b3          	sub	a5,a4,a5
    80000308:	0017b793          	seqz	a5,a5
    8000030c:	0ff7f793          	zext.b	a5,a5
    80000310:	00078513          	mv	a0,a5
    80000314:	cfdff0ef          	jal	ra,80000010 <check>
    80000318:	01300613          	li	a2,19
    8000031c:	00000593          	li	a1,0
    80000320:	00000517          	auipc	a0,0x0
    80000324:	0f850513          	addi	a0,a0,248 # 80000418 <a>
    80000328:	e9dff0ef          	jal	ra,800001c4 <quick_sort>
    8000032c:	fe042623          	sw	zero,-20(s0)
    80000330:	0440006f          	j	80000374 <main+0xf8>
    80000334:	00000717          	auipc	a4,0x0
    80000338:	0e470713          	addi	a4,a4,228 # 80000418 <a>
    8000033c:	fec42783          	lw	a5,-20(s0)
    80000340:	00279793          	slli	a5,a5,0x2
    80000344:	00f707b3          	add	a5,a4,a5
    80000348:	0007a703          	lw	a4,0(a5)
    8000034c:	fec42783          	lw	a5,-20(s0)
    80000350:	0007879b          	sext.w	a5,a5
    80000354:	40e787b3          	sub	a5,a5,a4
    80000358:	0017b793          	seqz	a5,a5
    8000035c:	0ff7f793          	zext.b	a5,a5
    80000360:	00078513          	mv	a0,a5
    80000364:	cadff0ef          	jal	ra,80000010 <check>
    80000368:	fec42783          	lw	a5,-20(s0)
    8000036c:	0017879b          	addiw	a5,a5,1
    80000370:	fef42623          	sw	a5,-20(s0)
    80000374:	fec42783          	lw	a5,-20(s0)
    80000378:	0007871b          	sext.w	a4,a5
    8000037c:	01300793          	li	a5,19
    80000380:	fae7dae3          	bge	a5,a4,80000334 <main+0xb8>
    80000384:	fec42783          	lw	a5,-20(s0)
    80000388:	0007871b          	sext.w	a4,a5
    8000038c:	01400793          	li	a5,20
    80000390:	40f707b3          	sub	a5,a4,a5
    80000394:	0017b793          	seqz	a5,a5
    80000398:	0ff7f793          	zext.b	a5,a5
    8000039c:	00078513          	mv	a0,a5
    800003a0:	c71ff0ef          	jal	ra,80000010 <check>
    800003a4:	00000793          	li	a5,0
    800003a8:	00078513          	mv	a0,a5
    800003ac:	01813083          	ld	ra,24(sp)
    800003b0:	01013403          	ld	s0,16(sp)
    800003b4:	02010113          	addi	sp,sp,32
    800003b8:	00008067          	ret

00000000800003bc <halt>:
    800003bc:	fe010113          	addi	sp,sp,-32
    800003c0:	00813c23          	sd	s0,24(sp)
    800003c4:	02010413          	addi	s0,sp,32
    800003c8:	00050793          	mv	a5,a0
    800003cc:	fef42623          	sw	a5,-20(s0)
    800003d0:	fec42783          	lw	a5,-20(s0)
    800003d4:	00078513          	mv	a0,a5
    800003d8:	00100073          	ebreak
    800003dc:	0000006f          	j	800003dc <halt+0x20>

00000000800003e0 <_trm_init>:
    800003e0:	fe010113          	addi	sp,sp,-32
    800003e4:	00113c23          	sd	ra,24(sp)
    800003e8:	00813823          	sd	s0,16(sp)
    800003ec:	02010413          	addi	s0,sp,32
    800003f0:	00000517          	auipc	a0,0x0
    800003f4:	02050513          	addi	a0,a0,32 # 80000410 <_etext>
    800003f8:	e85ff0ef          	jal	ra,8000027c <main>
    800003fc:	00050793          	mv	a5,a0
    80000400:	fef42623          	sw	a5,-20(s0)
    80000404:	fec42783          	lw	a5,-20(s0)
    80000408:	00078513          	mv	a0,a5
    8000040c:	fb1ff0ef          	jal	ra,800003bc <halt>
