
/home/wuchenze/riscv-proj/riscv_compile/build/shuixianhua.elf:     file format elf64-littleriscv


Disassembly of section .text:

0000000080000000 <_start>:
    80000000:	00000413          	li	s0,0
    80000004:	00009117          	auipc	sp,0x9
    80000008:	ffc10113          	addi	sp,sp,-4 # 80009000 <_end>
    8000000c:	200000ef          	jal	ra,8000020c <_trm_init>

0000000080000010 <check>:
    80000010:	fe010113          	addi	sp,sp,-32
    80000014:	00113c23          	sd	ra,24(sp)
    80000018:	00813823          	sd	s0,16(sp)
    8000001c:	02010413          	addi	s0,sp,32
    80000020:	00050793          	mv	a5,a0
    80000024:	fef407a3          	sb	a5,-17(s0)
    80000028:	fef44783          	lbu	a5,-17(s0)
    8000002c:	0017c793          	xori	a5,a5,1
    80000030:	0ff7f793          	zext.b	a5,a5
    80000034:	00078663          	beqz	a5,80000040 <check+0x30>
    80000038:	00100513          	li	a0,1
    8000003c:	1ac000ef          	jal	ra,800001e8 <halt>
    80000040:	00000013          	nop
    80000044:	01813083          	ld	ra,24(sp)
    80000048:	01013403          	ld	s0,16(sp)
    8000004c:	02010113          	addi	sp,sp,32
    80000050:	00008067          	ret

0000000080000054 <cube>:
    80000054:	fe010113          	addi	sp,sp,-32
    80000058:	00813c23          	sd	s0,24(sp)
    8000005c:	02010413          	addi	s0,sp,32
    80000060:	00050793          	mv	a5,a0
    80000064:	fef42623          	sw	a5,-20(s0)
    80000068:	fec42783          	lw	a5,-20(s0)
    8000006c:	02f787bb          	mulw	a5,a5,a5
    80000070:	0007879b          	sext.w	a5,a5
    80000074:	fec42703          	lw	a4,-20(s0)
    80000078:	02f707bb          	mulw	a5,a4,a5
    8000007c:	0007879b          	sext.w	a5,a5
    80000080:	00078513          	mv	a0,a5
    80000084:	01813403          	ld	s0,24(sp)
    80000088:	02010113          	addi	sp,sp,32
    8000008c:	00008067          	ret

0000000080000090 <main>:
    80000090:	fc010113          	addi	sp,sp,-64
    80000094:	02113c23          	sd	ra,56(sp)
    80000098:	02813823          	sd	s0,48(sp)
    8000009c:	02913423          	sd	s1,40(sp)
    800000a0:	04010413          	addi	s0,sp,64
    800000a4:	fc042c23          	sw	zero,-40(s0)
    800000a8:	06400793          	li	a5,100
    800000ac:	fcf42e23          	sw	a5,-36(s0)
    800000b0:	0ec0006f          	j	8000019c <main+0x10c>
    800000b4:	fdc42783          	lw	a5,-36(s0)
    800000b8:	00078713          	mv	a4,a5
    800000bc:	06400793          	li	a5,100
    800000c0:	02f747bb          	divw	a5,a4,a5
    800000c4:	fcf42a23          	sw	a5,-44(s0)
    800000c8:	fdc42783          	lw	a5,-36(s0)
    800000cc:	00078713          	mv	a4,a5
    800000d0:	00a00793          	li	a5,10
    800000d4:	02f747bb          	divw	a5,a4,a5
    800000d8:	0007879b          	sext.w	a5,a5
    800000dc:	00078713          	mv	a4,a5
    800000e0:	00a00793          	li	a5,10
    800000e4:	02f767bb          	remw	a5,a4,a5
    800000e8:	fcf42823          	sw	a5,-48(s0)
    800000ec:	fdc42783          	lw	a5,-36(s0)
    800000f0:	00078713          	mv	a4,a5
    800000f4:	00a00793          	li	a5,10
    800000f8:	02f767bb          	remw	a5,a4,a5
    800000fc:	fcf42623          	sw	a5,-52(s0)
    80000100:	fd442783          	lw	a5,-44(s0)
    80000104:	00078513          	mv	a0,a5
    80000108:	f4dff0ef          	jal	ra,80000054 <cube>
    8000010c:	00050793          	mv	a5,a0
    80000110:	00078493          	mv	s1,a5
    80000114:	fd042783          	lw	a5,-48(s0)
    80000118:	00078513          	mv	a0,a5
    8000011c:	f39ff0ef          	jal	ra,80000054 <cube>
    80000120:	00050793          	mv	a5,a0
    80000124:	00f487bb          	addw	a5,s1,a5
    80000128:	0007849b          	sext.w	s1,a5
    8000012c:	fcc42783          	lw	a5,-52(s0)
    80000130:	00078513          	mv	a0,a5
    80000134:	f21ff0ef          	jal	ra,80000054 <cube>
    80000138:	00050793          	mv	a5,a0
    8000013c:	00f487bb          	addw	a5,s1,a5
    80000140:	0007871b          	sext.w	a4,a5
    80000144:	fdc42783          	lw	a5,-36(s0)
    80000148:	0007879b          	sext.w	a5,a5
    8000014c:	04e79263          	bne	a5,a4,80000190 <main+0x100>
    80000150:	00000717          	auipc	a4,0x0
    80000154:	0f870713          	addi	a4,a4,248 # 80000248 <ans>
    80000158:	fd842783          	lw	a5,-40(s0)
    8000015c:	00279793          	slli	a5,a5,0x2
    80000160:	00f707b3          	add	a5,a4,a5
    80000164:	0007a703          	lw	a4,0(a5)
    80000168:	fdc42783          	lw	a5,-36(s0)
    8000016c:	0007879b          	sext.w	a5,a5
    80000170:	40e787b3          	sub	a5,a5,a4
    80000174:	0017b793          	seqz	a5,a5
    80000178:	0ff7f793          	zext.b	a5,a5
    8000017c:	00078513          	mv	a0,a5
    80000180:	e91ff0ef          	jal	ra,80000010 <check>
    80000184:	fd842783          	lw	a5,-40(s0)
    80000188:	0017879b          	addiw	a5,a5,1
    8000018c:	fcf42c23          	sw	a5,-40(s0)
    80000190:	fdc42783          	lw	a5,-36(s0)
    80000194:	0017879b          	addiw	a5,a5,1
    80000198:	fcf42e23          	sw	a5,-36(s0)
    8000019c:	fdc42783          	lw	a5,-36(s0)
    800001a0:	0007871b          	sext.w	a4,a5
    800001a4:	1f300793          	li	a5,499
    800001a8:	f0e7d6e3          	bge	a5,a4,800000b4 <main+0x24>
    800001ac:	fd842783          	lw	a5,-40(s0)
    800001b0:	0007871b          	sext.w	a4,a5
    800001b4:	00400793          	li	a5,4
    800001b8:	40f707b3          	sub	a5,a4,a5
    800001bc:	0017b793          	seqz	a5,a5
    800001c0:	0ff7f793          	zext.b	a5,a5
    800001c4:	00078513          	mv	a0,a5
    800001c8:	e49ff0ef          	jal	ra,80000010 <check>
    800001cc:	00000793          	li	a5,0
    800001d0:	00078513          	mv	a0,a5
    800001d4:	03813083          	ld	ra,56(sp)
    800001d8:	03013403          	ld	s0,48(sp)
    800001dc:	02813483          	ld	s1,40(sp)
    800001e0:	04010113          	addi	sp,sp,64
    800001e4:	00008067          	ret

00000000800001e8 <halt>:
    800001e8:	fe010113          	addi	sp,sp,-32
    800001ec:	00813c23          	sd	s0,24(sp)
    800001f0:	02010413          	addi	s0,sp,32
    800001f4:	00050793          	mv	a5,a0
    800001f8:	fef42623          	sw	a5,-20(s0)
    800001fc:	fec42783          	lw	a5,-20(s0)
    80000200:	00078513          	mv	a0,a5
    80000204:	00100073          	ebreak
    80000208:	0000006f          	j	80000208 <halt+0x20>

000000008000020c <_trm_init>:
    8000020c:	fe010113          	addi	sp,sp,-32
    80000210:	00113c23          	sd	ra,24(sp)
    80000214:	00813823          	sd	s0,16(sp)
    80000218:	02010413          	addi	s0,sp,32
    8000021c:	00000517          	auipc	a0,0x0
    80000220:	02450513          	addi	a0,a0,36 # 80000240 <mainargs>
    80000224:	e6dff0ef          	jal	ra,80000090 <main>
    80000228:	00050793          	mv	a5,a0
    8000022c:	fef42623          	sw	a5,-20(s0)
    80000230:	fec42783          	lw	a5,-20(s0)
    80000234:	00078513          	mv	a0,a5
    80000238:	fb1ff0ef          	jal	ra,800001e8 <halt>
